target datalayout = "e-m:e-p270:32:32-p271:32:32-p272:64:64-i64:64-i128:128-f80:128-n8:16:32:64-S128"
target triple = "x86_64-pc-linux-gnu"

%"class.std::__cxx11::basic_string" = type { %"struct.std::__cxx11::basic_string<char>::_Alloc_hider", i64, %union.anon }
%"struct.std::__cxx11::basic_string<char>::_Alloc_hider" = type { ptr }
%union.anon = type { i64, [8 x i8] }
%struct.stat = type { i64, i64, i64, i32, i32, i32, i32, i64, i64, i64, i64, %struct.timespec, %struct.timespec, %struct.timespec, [3 x i64] }
%struct.timespec = type { i64, i64 }

@.str.6 = private unnamed_addr constant [3 x i8] c"\\/\00", align 1

; Function Attrs: mustprogress nounwind uwtable
define noundef zeroext i1 @_ZN10open_spiel4file5MkdirERKNSt7__cxx1112basic_stringIcSt11char_traitsIcESaIcEEEi(ptr noundef nonnull align 8 dereferenceable(32) %0, i32 noundef %1) #5 {
  %3 = alloca ptr, align 8
  %4 = alloca i32, align 4
  store ptr %0, ptr %3, align 8
  store i32 %1, ptr %4, align 4
  %5 = load ptr, ptr %3, align 8
  %6 = call noundef ptr @_ZNKSt7__cxx1112basic_stringIcSt11char_traitsIcESaIcEE5c_strEv(ptr noundef nonnull align 8 dereferenceable(32) %5) #3
  %7 = load i32, ptr %4, align 4
  %8 = call i32 @mkdir(ptr noundef %6, i32 noundef %7) #3
  %9 = icmp eq i32 %8, 0
  ret i1 %9
}

; Function Attrs: mustprogress uwtable
define noundef zeroext i1 @_ZN10open_spiel4file6MkdirsERKNSt7__cxx1112basic_stringIcSt11char_traitsIcESaIcEEEi(ptr noundef nonnull align 8 dereferenceable(32) %0, i32 noundef %1) #4 {
  %3 = alloca i1, align 1
  %4 = alloca ptr, align 8
  %5 = alloca i32, align 4
  %6 = alloca %struct.stat, align 8
  %7 = alloca i64, align 8
  %8 = alloca %"class.std::__cxx11::basic_string", align 8
  %9 = alloca i32, align 4
  store ptr %0, ptr %4, align 8
  store i32 %1, ptr %5, align 4
  store i64 0, ptr %7, align 8
  br label %10

10:                                               ; preds = %37, %35, %2
  %11 = load i64, ptr %7, align 8
  %12 = icmp ne i64 %11, -1
  br i1 %12, label %13, label %38

13:                                               ; preds = %10
  %14 = load ptr, ptr %4, align 8
  %15 = load i64, ptr %7, align 8
  %16 = add i64 %15, 1
  %17 = call noundef i64 @_ZNKSt7__cxx1112basic_stringIcSt11char_traitsIcESaIcEE13find_first_ofEPKcm(ptr noundef nonnull align 8 dereferenceable(32) %14, ptr noundef @.str.6, i64 noundef %16) #3
  store i64 %17, ptr %7, align 8
  %18 = load ptr, ptr %4, align 8
  %19 = load i64, ptr %7, align 8
  call void @_ZNKSt7__cxx1112basic_stringIcSt11char_traitsIcESaIcEE6substrEmm(ptr dead_on_unwind writable sret(%"class.std::__cxx11::basic_string") align 8 %8, ptr noundef nonnull align 8 dereferenceable(32) %18, i64 noundef 0, i64 noundef %19)
  %20 = call noundef ptr @_ZNKSt7__cxx1112basic_stringIcSt11char_traitsIcESaIcEE5c_strEv(ptr noundef nonnull align 8 dereferenceable(32) %8) #3
  %21 = call i32 @stat(ptr noundef %20, ptr noundef %6) #3
  %22 = icmp eq i32 %21, 0
  br i1 %22, label %23, label %30

23:                                               ; preds = %13
  %24 = getelementptr inbounds nuw %struct.stat, ptr %6, i32 0, i32 3
  %25 = load i32, ptr %24, align 8
  %26 = and i32 %25, 16384
  %27 = icmp ne i32 %26, 0
  br i1 %27, label %28, label %29

28:                                               ; preds = %23
  store i32 2, ptr %9, align 4
  br label %35, !llvm.loop !4

29:                                               ; preds = %23
  store i1 false, ptr %3, align 1
  store i32 1, ptr %9, align 4
  br label %35

30:                                               ; preds = %13
  %31 = load i32, ptr %5, align 4
  %32 = call noundef zeroext i1 @_ZN10open_spiel4file5MkdirERKNSt7__cxx1112basic_stringIcSt11char_traitsIcESaIcEEEi(ptr noundef nonnull align 8 dereferenceable(32) %8, i32 noundef %31)
  br i1 %32, label %34, label %33

33:                                               ; preds = %30
  store i1 false, ptr %3, align 1
  store i32 1, ptr %9, align 4
  br label %35

34:                                               ; preds = %30
  store i32 0, ptr %9, align 4
  br label %35

35:                                               ; preds = %34, %33, %29, %28
  call void @_ZNSt7__cxx1112basic_stringIcSt11char_traitsIcESaIcEED1Ev(ptr noundef nonnull align 8 dereferenceable(32) %8) #3
  %36 = load i32, ptr %9, align 4
  switch i32 %36, label %41 [
    i32 0, label %37
    i32 2, label %10
    i32 1, label %39
  ]

37:                                               ; preds = %35
  br label %10, !llvm.loop !4

38:                                               ; preds = %10
  store i1 true, ptr %3, align 1
  br label %39

39:                                               ; preds = %38, %35
  %40 = load i1, ptr %3, align 1
  ret i1 %40

41:                                               ; preds = %35
  unreachable
}